target datalayout = "e-m:e-p270:32:32-p271:32:32-p272:64:64-i64:64-i128:128-f80:128-n8:16:32:64-S128"
target triple = "x86_64-pc-linux-gnu"

@BytecodeVerificationLocal = external global i8, align 1
@BytecodeVerificationRemote = external global i8, align 1

; Function Attrs: mustprogress nounwind uwtable
define hidden noundef zeroext i1 @_ZN8Verifier16relax_access_forEP7oopDesc(ptr noundef %0) #1 align 2 {
  %2 = alloca ptr, align 8
  %3 = alloca i8, align 1
  %4 = alloca i8, align 1
  store ptr %0, ptr %2, align 8
  %5 = load ptr, ptr %2, align 8
  %6 = call noundef zeroext i1 @_ZN21java_lang_ClassLoader17is_trusted_loaderEP7oopDesc(ptr noundef %5)
  %7 = zext i1 %6 to i8
  store i8 %7, ptr %3, align 1
  %8 = load i8, ptr @BytecodeVerificationLocal, align 1
  %9 = trunc i8 %8 to i1
  br i1 %9, label %10, label %13

10:                                               ; preds = %1
  %11 = load i8, ptr @BytecodeVerificationRemote, align 1
  %12 = trunc i8 %11 to i1
  br i1 %12, label %25, label %13

13:                                               ; preds = %10, %1
  %14 = load i8, ptr @BytecodeVerificationLocal, align 1
  %15 = trunc i8 %14 to i1
  br i1 %15, label %23, label %16

16:                                               ; preds = %13
  %17 = load i8, ptr @BytecodeVerificationRemote, align 1
  %18 = trunc i8 %17 to i1
  br i1 %18, label %19, label %23

19:                                               ; preds = %16
  %20 = load i8, ptr %3, align 1
  %21 = trunc i8 %20 to i1
  %22 = xor i1 %21, true
  br label %23

23:                                               ; preds = %19, %16, %13
  %24 = phi i1 [ false, %16 ], [ false, %13 ], [ %22, %19 ]
  br label %25

25:                                               ; preds = %23, %10
  %26 = phi i1 [ true, %10 ], [ %24, %23 ]
  %27 = zext i1 %26 to i8
  store i8 %27, ptr %4, align 1
  %28 = load i8, ptr %4, align 1
  %29 = trunc i8 %28 to i1
  %30 = xor i1 %29, true
  ret i1 %30
}