; Function Attrs: mustprogress nounwind uwtable
define hidden noundef zeroext i1 @_ZN8Verifier16relax_access_forEP7oopDesc(ptr noundef %0) local_unnamed_addr #1 align 2 {
.thread:
  %1 = tail call noundef zeroext i1 @_ZN21java_lang_ClassLoader17is_trusted_loaderEP7oopDesc(ptr noundef %0) #20
  %2 = load i8, ptr @BytecodeVerificationLocal, align 1
  %3 = trunc i8 %2 to i1
  %4 = load i8, ptr @BytecodeVerificationRemote, align 1
  %5 = trunc i8 %4 to i1
  %not.3 = xor i1 %5, true
  %not. = xor i1 %3, true
  %spec.select = and i1 %1, %not.
  %spec.select4 = or i1 %spec.select, %not.3
  ret i1 %spec.select4
}